target datalayout = "e-m:e-p270:32:32-p271:32:32-p272:64:64-i64:64-i128:128-f80:128-n8:16:32:64-S128"
target triple = "x86_64-unknown-linux-gnu"

%"class.icu_75::TimeZoneRule" = type { %"class.icu_75::UObject", %"class.icu_75::UnicodeString", i32, i32 }
%"class.icu_75::UObject" = type { ptr }
%"class.icu_75::UnicodeString" = type { %"class.icu_75::Replaceable", %"union.icu_75::UnicodeString::StackBufferOrFields" }
%"class.icu_75::Replaceable" = type { %"class.icu_75::UObject" }
%"union.icu_75::UnicodeString::StackBufferOrFields" = type { %struct.anon.0, [32 x i8] }
%struct.anon.0 = type { i16, i32, i32, ptr }
%"class.icu_75::AnnualTimeZoneRule" = type { %"class.icu_75::TimeZoneRule", ptr, i32, i32 }

; Function Attrs: mustprogress uwtable
define noundef signext i8 @_ZNK6icu_7518AnnualTimeZoneRule16getPreviousStartEdiiaRd(ptr noundef nonnull align 8 dereferenceable(96) %this, double noundef %base, i32 noundef %prevRawOffset, i32 noundef %prevDSTSavings, i8 noundef signext %inclusive, ptr noundef nonnull align 8 dereferenceable(8) %result) unnamed_addr #0 align 2 {
entry:
  %retval = alloca i8, align 1
  %this.addr = alloca ptr, align 8
  %base.addr = alloca double, align 8
  %prevRawOffset.addr = alloca i32, align 4
  %prevDSTSavings.addr = alloca i32, align 4
  %inclusive.addr = alloca i8, align 1
  %result.addr = alloca ptr, align 8
  %year = alloca i32, align 4
  %month = alloca i32, align 4
  %dom = alloca i32, align 4
  %dow = alloca i32, align 4
  %doy = alloca i32, align 4
  %mid = alloca i32, align 4
  %tmp = alloca double, align 8
  store ptr %this, ptr %this.addr, align 8
  store double %base, ptr %base.addr, align 8
  store i32 %prevRawOffset, ptr %prevRawOffset.addr, align 4
  store i32 %prevDSTSavings, ptr %prevDSTSavings.addr, align 4
  store i8 %inclusive, ptr %inclusive.addr, align 1
  store ptr %result, ptr %result.addr, align 8
  %this1 = load ptr, ptr %this.addr, align 8
  %0 = load double, ptr %base.addr, align 8
  call void @_ZN6icu_755Grego12timeToFieldsEdRiS1_S1_S1_S1_S1_(double noundef %0, ptr noundef nonnull align 4 dereferenceable(4) %year, ptr noundef nonnull align 4 dereferenceable(4) %month, ptr noundef nonnull align 4 dereferenceable(4) %dom, ptr noundef nonnull align 4 dereferenceable(4) %dow, ptr noundef nonnull align 4 dereferenceable(4) %doy, ptr noundef nonnull align 4 dereferenceable(4) %mid)
  %1 = load i32, ptr %year, align 4
  %fEndYear = getelementptr inbounds %"class.icu_75::AnnualTimeZoneRule", ptr %this1, i32 0, i32 3
  %2 = load i32, ptr %fEndYear, align 4
  %cmp = icmp sgt i32 %1, %2
  br i1 %cmp, label %if.then, label %if.end

if.then:                                          ; preds = %entry
  %3 = load i32, ptr %prevRawOffset.addr, align 4
  %4 = load i32, ptr %prevDSTSavings.addr, align 4
  %5 = load ptr, ptr %result.addr, align 8
  %vtable = load ptr, ptr %this1, align 8
  %vfn = getelementptr inbounds ptr, ptr %vtable, i64 8
  %6 = load ptr, ptr %vfn, align 8
  %call = call noundef signext i8 %6(ptr noundef nonnull align 8 dereferenceable(96) %this1, i32 noundef %3, i32 noundef %4, ptr noundef nonnull align 8 dereferenceable(8) %5)
  store i8 %call, ptr %retval, align 1
  br label %return

if.end:                                           ; preds = %entry
  %7 = load i32, ptr %year, align 4
  %8 = load i32, ptr %prevRawOffset.addr, align 4
  %9 = load i32, ptr %prevDSTSavings.addr, align 4
  %call2 = call noundef signext i8 @_ZNK6icu_7518AnnualTimeZoneRule14getStartInYearEiiiRd(ptr noundef nonnull align 8 dereferenceable(96) %this1, i32 noundef %7, i32 noundef %8, i32 noundef %9, ptr noundef nonnull align 8 dereferenceable(8) %tmp)
  %tobool = icmp ne i8 %call2, 0
  br i1 %tobool, label %if.then3, label %if.end9

if.then3:                                         ; preds = %if.end
  %10 = load double, ptr %tmp, align 8
  %11 = load double, ptr %base.addr, align 8
  %cmp4 = fcmp ogt double %10, %11
  br i1 %cmp4, label %if.then7, label %lor.lhs.false

lor.lhs.false:                                    ; preds = %if.then3
  %12 = load i8, ptr %inclusive.addr, align 1
  %tobool5 = icmp ne i8 %12, 0
  br i1 %tobool5, label %if.else, label %land.lhs.true

land.lhs.true:                                    ; preds = %lor.lhs.false
  %13 = load double, ptr %tmp, align 8
  %14 = load double, ptr %base.addr, align 8
  %cmp6 = fcmp oeq double %13, %14
  br i1 %cmp6, label %if.then7, label %if.else

if.then7:                                         ; preds = %land.lhs.true, %if.then3
  %15 = load i32, ptr %year, align 4
  %sub = sub nsw i32 %15, 1
  %16 = load i32, ptr %prevRawOffset.addr, align 4
  %17 = load i32, ptr %prevDSTSavings.addr, align 4
  %18 = load ptr, ptr %result.addr, align 8
  %call8 = call noundef signext i8 @_ZNK6icu_7518AnnualTimeZoneRule14getStartInYearEiiiRd(ptr noundef nonnull align 8 dereferenceable(96) %this1, i32 noundef %sub, i32 noundef %16, i32 noundef %17, ptr noundef nonnull align 8 dereferenceable(8) %18)
  store i8 %call8, ptr %retval, align 1
  br label %return

if.else:                                          ; preds = %land.lhs.true, %lor.lhs.false
  %19 = load double, ptr %tmp, align 8
  %20 = load ptr, ptr %result.addr, align 8
  store double %19, ptr %20, align 8
  store i8 1, ptr %retval, align 1
  br label %return

if.end9:                                          ; preds = %if.end
  store i8 0, ptr %retval, align 1
  br label %return

return:                                           ; preds = %if.end9, %if.else, %if.then7, %if.then
  %21 = load i8, ptr %retval, align 1
  ret i8 %21
}