; Function Attrs: mustprogress uwtable
define noundef signext i8 @_ZNK6icu_7518AnnualTimeZoneRule16getPreviousStartEdiiaRd(ptr noundef nonnull align 8 dereferenceable(96) %this, double noundef %base, i32 noundef %prevRawOffset, i32 noundef %prevDSTSavings, i8 noundef signext %inclusive, ptr noundef nonnull align 8 dereferenceable(8) %result) unnamed_addr #0 align 2 {
entry:
  %year = alloca i32, align 4
  %month = alloca i32, align 4
  %dom = alloca i32, align 4
  %dow = alloca i32, align 4
  %doy = alloca i32, align 4
  %mid = alloca i32, align 4
  %tmp = alloca double, align 8
  call void @_ZN6icu_755Grego12timeToFieldsEdRiS1_S1_S1_S1_S1_(double noundef %base, ptr noundef nonnull align 4 dereferenceable(4) %year, ptr noundef nonnull align 4 dereferenceable(4) %month, ptr noundef nonnull align 4 dereferenceable(4) %dom, ptr noundef nonnull align 4 dereferenceable(4) %dow, ptr noundef nonnull align 4 dereferenceable(4) %doy, ptr noundef nonnull align 4 dereferenceable(4) %mid)
  %0 = load i32, ptr %year, align 4
  %fEndYear = getelementptr inbounds i8, ptr %this, i64 92
  %1 = load i32, ptr %fEndYear, align 4
  %cmp = icmp sgt i32 %0, %1
  br i1 %cmp, label %if.then, label %if.end

if.then:                                          ; preds = %entry
  %vtable = load ptr, ptr %this, align 8
  %vfn = getelementptr inbounds i8, ptr %vtable, i64 64
  %2 = load ptr, ptr %vfn, align 8
  %call = call noundef signext i8 %2(ptr noundef nonnull align 8 dereferenceable(96) %this, i32 noundef %prevRawOffset, i32 noundef %prevDSTSavings, ptr noundef nonnull align 8 dereferenceable(8) %result)
  br label %return

if.end:                                           ; preds = %entry
  %call2 = call noundef signext i8 @_ZNK6icu_7518AnnualTimeZoneRule14getStartInYearEiiiRd(ptr noundef nonnull align 8 dereferenceable(96) %this, i32 noundef %0, i32 noundef %prevRawOffset, i32 noundef %prevDSTSavings, ptr noundef nonnull align 8 dereferenceable(8) %tmp), !range !4
  %tobool.not = icmp eq i8 %call2, 0
  br i1 %tobool.not, label %return, label %if.then3

if.then3:                                         ; preds = %if.end
  %3 = load double, ptr %tmp, align 8
  %cmp4 = fcmp ogt double %3, %base
  br i1 %cmp4, label %if.then7, label %lor.lhs.false

lor.lhs.false:                                    ; preds = %if.then3
  %tobool5.not = icmp eq i8 %inclusive, 0
  %cmp6 = fcmp oeq double %3, %base
  %or.cond = and i1 %tobool5.not, %cmp6
  br i1 %or.cond, label %if.then7, label %if.else

if.then7:                                         ; preds = %lor.lhs.false, %if.then3
  %4 = load i32, ptr %year, align 4
  %sub = add nsw i32 %4, -1
  %call8 = call noundef signext i8 @_ZNK6icu_7518AnnualTimeZoneRule14getStartInYearEiiiRd(ptr noundef nonnull align 8 dereferenceable(96) %this, i32 noundef %sub, i32 noundef %prevRawOffset, i32 noundef %prevDSTSavings, ptr noundef nonnull align 8 dereferenceable(8) %result), !range !4
  br label %return

if.else:                                          ; preds = %lor.lhs.false
  store double %3, ptr %result, align 8
  br label %return

return:                                           ; preds = %if.end, %if.else, %if.then7, %if.then
  %retval.0 = phi i8 [ %call, %if.then ], [ %call8, %if.then7 ], [ 1, %if.else ], [ 0, %if.end ]
  ret i8 %retval.0
}